; Function Attrs: mustprogress nofree norecurse nosync nounwind willreturn memory(read, inaccessiblemem: none) uwtable
define noundef zeroext i1 @_ZNK5osgeo4proj9operation19CoordinateOperation30requiresPerCoordinateInputTimeEv(ptr noundef nonnull readonly align 8 captures(none) dereferenceable(72) %0) local_unnamed_addr #14 align 2 {
  %2 = getelementptr inbounds nuw i8, ptr %0, i64 64
  %3 = load ptr, ptr %2, align 8, !tbaa !27
  %4 = getelementptr inbounds nuw i8, ptr %3, i64 145
  %5 = load i8, ptr %4, align 1, !tbaa !156, !range !22, !noundef !23
  %6 = trunc nuw i8 %5 to i1
  br i1 %6, label %7, label %13

7:                                                ; preds = %1
  %8 = getelementptr inbounds nuw i8, ptr %3, i64 112
  %9 = load ptr, ptr %8, align 8, !tbaa !48
  %10 = load i8, ptr %9, align 8, !tbaa !104, !range !22, !noundef !23
  %11 = trunc nuw i8 %10 to i1
  %12 = xor i1 %11, true
  br label %13

13:                                               ; preds = %7, %1
  %14 = phi i1 [ false, %1 ], [ %12, %7 ]
  ret i1 %14
}